target datalayout = "e-m:e-p270:32:32-p271:32:32-p272:64:64-i64:64-i128:128-f80:128-n8:16:32:64-S128"
target triple = "x86_64-pc-linux-gnu"

%"class.osgeo::proj::util::BaseObject" = type { ptr, %"class.std::unique_ptr" }
%"class.std::unique_ptr" = type { %"struct.std::__uniq_ptr_data" }
%"struct.std::__uniq_ptr_data" = type { %"class.std::__uniq_ptr_impl" }
%"class.std::__uniq_ptr_impl" = type { %"class.std::tuple" }
%"class.std::tuple" = type { %"struct.std::_Tuple_impl" }
%"struct.std::_Tuple_impl" = type { %"struct.std::_Head_base.1" }
%"struct.std::_Head_base.1" = type { ptr }
%"class.osgeo::proj::metadata::GeographicExtent" = type { %"class.osgeo::proj::util::BaseObject", %"class.osgeo::proj::util::IComparable", %"class.std::unique_ptr.10" }
%"class.osgeo::proj::util::IComparable" = type { ptr }
%"class.std::unique_ptr.10" = type { %"struct.std::__uniq_ptr_data.11" }
%"struct.std::__uniq_ptr_data.11" = type { %"class.std::__uniq_ptr_impl.12" }
%"class.std::__uniq_ptr_impl.12" = type { %"class.std::tuple.13" }
%"class.std::tuple.13" = type { %"struct.std::_Tuple_impl.14" }
%"struct.std::_Tuple_impl.14" = type { %"struct.std::_Head_base.17" }
%"struct.std::_Head_base.17" = type { ptr }

@_ZTVN5osgeo4proj4util11IComparableE = external unnamed_addr constant { [5 x ptr] }, align 8

; Function Attrs: mustprogress nounwind uwtable
define linkonce_odr hidden noundef nonnull align 8 dereferenceable(8) ptr @_ZNSt10_Head_baseILm0EPN5osgeo4proj8metadata16GeographicExtent7PrivateELb0EE7_M_headERS6_(ptr noundef nonnull align 8 dereferenceable(8) %0) #3 comdat align 2 {
  %2 = alloca ptr, align 8
  store ptr %0, ptr %2, align 8
  %3 = load ptr, ptr %2, align 8
  %4 = getelementptr inbounds %"struct.std::_Head_base.17", ptr %3, i32 0, i32 0
  ret ptr %4
}

; Function Attrs: mustprogress nounwind uwtable
define linkonce_odr hidden noundef nonnull align 8 dereferenceable(8) ptr @_ZNSt11_Tuple_implILm0EJPN5osgeo4proj8metadata16GeographicExtent7PrivateESt14default_deleteIS4_EEE7_M_headERS8_(ptr noundef nonnull align 8 dereferenceable(8) %0) #3 comdat align 2 {
  %2 = alloca ptr, align 8
  store ptr %0, ptr %2, align 8
  %3 = load ptr, ptr %2, align 8
  %4 = call noundef nonnull align 8 dereferenceable(8) ptr @_ZNSt10_Head_baseILm0EPN5osgeo4proj8metadata16GeographicExtent7PrivateELb0EE7_M_headERS6_(ptr noundef nonnull align 8 dereferenceable(8) %3) #19
  ret ptr %4
}

; Function Attrs: mustprogress nounwind uwtable
define linkonce_odr hidden void @_ZNSt10_Head_baseILm1ESt14default_deleteIN5osgeo4proj8metadata16GeographicExtent7PrivateEELb1EEC2Ev(ptr noundef nonnull align 1 dereferenceable(1) %0) unnamed_addr #3 comdat align 2 {
  %2 = alloca ptr, align 8
  store ptr %0, ptr %2, align 8
  ret void
}

; Function Attrs: mustprogress nounwind uwtable
define linkonce_odr hidden noundef nonnull align 8 dereferenceable(8) ptr @_ZSt12__get_helperILm0EPN5osgeo4proj8metadata16GeographicExtent7PrivateEJSt14default_deleteIS4_EEERT0_RSt11_Tuple_implIXT_EJS8_DpT1_EE(ptr noundef nonnull align 8 dereferenceable(8) %0) #3 comdat {
  %2 = alloca ptr, align 8
  store ptr %0, ptr %2, align 8
  %3 = load ptr, ptr %2, align 8
  %4 = call noundef nonnull align 8 dereferenceable(8) ptr @_ZNSt11_Tuple_implILm0EJPN5osgeo4proj8metadata16GeographicExtent7PrivateESt14default_deleteIS4_EEE7_M_headERS8_(ptr noundef nonnull align 8 dereferenceable(8) %3) #19
  ret ptr %4
}

; Function Attrs: mustprogress nounwind uwtable
define linkonce_odr hidden void @_ZNSt10_Head_baseILm0EPN5osgeo4proj8metadata16GeographicExtent7PrivateELb0EEC2Ev(ptr noundef nonnull align 8 dereferenceable(8) %0) unnamed_addr #3 comdat align 2 {
  %2 = alloca ptr, align 8
  store ptr %0, ptr %2, align 8
  %3 = load ptr, ptr %2, align 8
  %4 = getelementptr inbounds %"struct.std::_Head_base.17", ptr %3, i32 0, i32 0
  store ptr null, ptr %4, align 8
  ret void
}

; Function Attrs: mustprogress uwtable
define linkonce_odr hidden void @_ZNSt11_Tuple_implILm1EJSt14default_deleteIN5osgeo4proj8metadata16GeographicExtent7PrivateEEEEC2Ev(ptr noundef nonnull align 1 dereferenceable(1) %0) unnamed_addr #0 comdat align 2 {
  %2 = alloca ptr, align 8
  store ptr %0, ptr %2, align 8
  %3 = load ptr, ptr %2, align 8
  call void @_ZNSt10_Head_baseILm1ESt14default_deleteIN5osgeo4proj8metadata16GeographicExtent7PrivateEELb1EEC2Ev(ptr noundef nonnull align 1 dereferenceable(1) %3)
  ret void
}

; Function Attrs: mustprogress nounwind uwtable
define linkonce_odr hidden noundef nonnull align 8 dereferenceable(8) ptr @_ZSt3getILm0EJPN5osgeo4proj8metadata16GeographicExtent7PrivateESt14default_deleteIS4_EEERNSt13tuple_elementIXT_ESt5tupleIJDpT0_EEE4typeERSC_(ptr noundef nonnull align 8 dereferenceable(8) %0) #3 comdat {
  %2 = alloca ptr, align 8
  store ptr %0, ptr %2, align 8
  %3 = load ptr, ptr %2, align 8
  %4 = call noundef nonnull align 8 dereferenceable(8) ptr @_ZSt12__get_helperILm0EPN5osgeo4proj8metadata16GeographicExtent7PrivateEJSt14default_deleteIS4_EEERT0_RSt11_Tuple_implIXT_EJS8_DpT1_EE(ptr noundef nonnull align 8 dereferenceable(8) %3) #19
  ret ptr %4
}

; Function Attrs: mustprogress uwtable
define linkonce_odr hidden void @_ZNSt11_Tuple_implILm0EJPN5osgeo4proj8metadata16GeographicExtent7PrivateESt14default_deleteIS4_EEEC2Ev(ptr noundef nonnull align 8 dereferenceable(8) %0) unnamed_addr #0 comdat align 2 {
  %2 = alloca ptr, align 8
  store ptr %0, ptr %2, align 8
  %3 = load ptr, ptr %2, align 8
  call void @_ZNSt11_Tuple_implILm1EJSt14default_deleteIN5osgeo4proj8metadata16GeographicExtent7PrivateEEEEC2Ev(ptr noundef nonnull align 1 dereferenceable(1) %3)
  call void @_ZNSt10_Head_baseILm0EPN5osgeo4proj8metadata16GeographicExtent7PrivateELb0EEC2Ev(ptr noundef nonnull align 8 dereferenceable(8) %3)
  ret void
}

; Function Attrs: mustprogress nounwind uwtable
define linkonce_odr hidden noundef nonnull align 8 dereferenceable(8) ptr @_ZNSt15__uniq_ptr_implIN5osgeo4proj8metadata16GeographicExtent7PrivateESt14default_deleteIS4_EE6_M_ptrEv(ptr noundef nonnull align 8 dereferenceable(8) %0) #3 comdat align 2 {
  %2 = alloca ptr, align 8
  store ptr %0, ptr %2, align 8
  %3 = load ptr, ptr %2, align 8
  %4 = getelementptr inbounds %"class.std::__uniq_ptr_impl.12", ptr %3, i32 0, i32 0
  %5 = call noundef nonnull align 8 dereferenceable(8) ptr @_ZSt3getILm0EJPN5osgeo4proj8metadata16GeographicExtent7PrivateESt14default_deleteIS4_EEERNSt13tuple_elementIXT_ESt5tupleIJDpT0_EEE4typeERSC_(ptr noundef nonnull align 8 dereferenceable(8) %4) #19
  ret ptr %5
}

; Function Attrs: mustprogress nounwind uwtable
define linkonce_odr hidden void @_ZNSt5tupleIJPN5osgeo4proj8metadata16GeographicExtent7PrivateESt14default_deleteIS4_EEEC2ILb1ETnNSt9enable_ifIXclsr17_TupleConstraintsIXT_ES5_S7_EE37__is_implicitly_default_constructibleEEbE4typeELb1EEEv(ptr noundef nonnull align 8 dereferenceable(8) %0) unnamed_addr #3 comdat align 2 personality ptr @__gxx_personality_v0 {
  %2 = alloca ptr, align 8
  store ptr %0, ptr %2, align 8
  %3 = load ptr, ptr %2, align 8
  invoke void @_ZNSt11_Tuple_implILm0EJPN5osgeo4proj8metadata16GeographicExtent7PrivateESt14default_deleteIS4_EEEC2Ev(ptr noundef nonnull align 8 dereferenceable(8) %3)
          to label %4 unwind label %5

4:                                                ; preds = %1
  ret void

5:                                                ; preds = %1
  %6 = landingpad { ptr, i32 }
          catch ptr null
  %7 = extractvalue { ptr, i32 } %6, 0
  call void @__clang_call_terminate(ptr %7) #22
  unreachable
}

; Function Attrs: mustprogress nounwind uwtable
define linkonce_odr hidden void @_ZNSt15__uniq_ptr_implIN5osgeo4proj8metadata16GeographicExtent7PrivateESt14default_deleteIS4_EEC2EPS4_(ptr noundef nonnull align 8 dereferenceable(8) %0, ptr noundef %1) unnamed_addr #3 comdat align 2 {
  %3 = alloca ptr, align 8
  %4 = alloca ptr, align 8
  store ptr %0, ptr %3, align 8
  store ptr %1, ptr %4, align 8
  %5 = load ptr, ptr %3, align 8
  %6 = getelementptr inbounds %"class.std::__uniq_ptr_impl.12", ptr %5, i32 0, i32 0
  call void @_ZNSt5tupleIJPN5osgeo4proj8metadata16GeographicExtent7PrivateESt14default_deleteIS4_EEEC2ILb1ETnNSt9enable_ifIXclsr17_TupleConstraintsIXT_ES5_S7_EE37__is_implicitly_default_constructibleEEbE4typeELb1EEEv(ptr noundef nonnull align 8 dereferenceable(8) %6) #19
  %7 = load ptr, ptr %4, align 8
  %8 = call noundef nonnull align 8 dereferenceable(8) ptr @_ZNSt15__uniq_ptr_implIN5osgeo4proj8metadata16GeographicExtent7PrivateESt14default_deleteIS4_EE6_M_ptrEv(ptr noundef nonnull align 8 dereferenceable(8) %5) #19
  store ptr %7, ptr %8, align 8
  ret void
}

; Function Attrs: noreturn nounwind uwtable
define linkonce_odr hidden void @__clang_call_terminate(ptr noundef %0) #13 comdat {
  %2 = call ptr @__cxa_begin_catch(ptr %0) #19
  call void @_ZSt9terminatev() #22
  unreachable
}

; Function Attrs: mustprogress uwtable
define linkonce_odr hidden void @_ZNSt15__uniq_ptr_dataIN5osgeo4proj8metadata16GeographicExtent7PrivateESt14default_deleteIS4_ELb1ELb1EECI2St15__uniq_ptr_implIS4_S6_EEPS4_(ptr noundef nonnull align 8 dereferenceable(8) %0, ptr noundef %1) unnamed_addr #0 comdat align 2 {
  %3 = alloca ptr, align 8
  %4 = alloca ptr, align 8
  store ptr %0, ptr %3, align 8
  store ptr %1, ptr %4, align 8
  %5 = load ptr, ptr %3, align 8
  %6 = load ptr, ptr %4, align 8
  call void @_ZNSt15__uniq_ptr_implIN5osgeo4proj8metadata16GeographicExtent7PrivateESt14default_deleteIS4_EEC2EPS4_(ptr noundef nonnull align 8 dereferenceable(8) %5, ptr noundef %6)
  ret void
}

; Function Attrs: mustprogress nounwind uwtable
define linkonce_odr hidden void @_ZNSt10unique_ptrIN5osgeo4proj8metadata16GeographicExtent7PrivateESt14default_deleteIS4_EEC2IS6_vEEPS4_(ptr noundef nonnull align 8 dereferenceable(8) %0, ptr noundef %1) unnamed_addr #3 comdat align 2 personality ptr @__gxx_personality_v0 {
  %3 = alloca ptr, align 8
  %4 = alloca ptr, align 8
  store ptr %0, ptr %3, align 8
  store ptr %1, ptr %4, align 8
  %5 = load ptr, ptr %3, align 8
  %6 = getelementptr inbounds %"class.std::unique_ptr.10", ptr %5, i32 0, i32 0
  %7 = load ptr, ptr %4, align 8
  invoke void @_ZNSt15__uniq_ptr_dataIN5osgeo4proj8metadata16GeographicExtent7PrivateESt14default_deleteIS4_ELb1ELb1EECI2St15__uniq_ptr_implIS4_S6_EEPS4_(ptr noundef nonnull align 8 dereferenceable(8) %6, ptr noundef %7)
          to label %8 unwind label %9

8:                                                ; preds = %2
  ret void

9:                                                ; preds = %2
  %10 = landingpad { ptr, i32 }
          catch ptr null
  %11 = extractvalue { ptr, i32 } %10, 0
  call void @__clang_call_terminate(ptr %11) #22
  unreachable
}

; Function Attrs: mustprogress uwtable
define linkonce_odr hidden void @_ZN5osgeo4proj8internal11make_uniqueINS0_8metadata16GeographicExtent7PrivateEJEEESt10unique_ptrIT_St14default_deleteIS7_EEDpOT0_(ptr dead_on_unwind noalias writable sret(%"class.std::unique_ptr.10") align 8 %0) #0 comdat {
  %2 = alloca ptr, align 8
  store ptr %0, ptr %2, align 8
  %3 = call noalias noundef nonnull ptr @_Znwm(i64 noundef 1) #20
  call void @_ZNSt10unique_ptrIN5osgeo4proj8metadata16GeographicExtent7PrivateESt14default_deleteIS4_EEC2IS6_vEEPS4_(ptr noundef nonnull align 8 dereferenceable(8) %0, ptr noundef %3) #19
  ret void
}

; Function Attrs: mustprogress nounwind uwtable
define linkonce_odr void @_ZN5osgeo4proj4util11IComparableC2Ev(ptr noundef nonnull align 8 dereferenceable(8) %0) unnamed_addr #3 comdat align 2 {
  %2 = alloca ptr, align 8
  store ptr %0, ptr %2, align 8
  %3 = load ptr, ptr %2, align 8
  store ptr getelementptr inbounds inrange(-16, 24) ({ [5 x ptr] }, ptr @_ZTVN5osgeo4proj4util11IComparableE, i32 0, i32 0, i32 2), ptr %3, align 8
  ret void
}

; Function Attrs: mustprogress uwtable
define hidden void @_ZN5osgeo4proj8metadata16GeographicExtentC2Ev(ptr noundef nonnull align 8 dereferenceable(32) %0) unnamed_addr #0 align 2 personality ptr @__gxx_personality_v0 {
  %2 = alloca ptr, align 8
  %3 = alloca ptr, align 8
  %4 = alloca i32, align 4
  store ptr %0, ptr %2, align 8
  %5 = load ptr, ptr %2, align 8
  call void @_ZN5osgeo4proj4util10BaseObjectC2Ev(ptr noundef nonnull align 8 dereferenceable(16) %5)
  %6 = getelementptr inbounds i8, ptr %5, i64 16
  call void @_ZN5osgeo4proj4util11IComparableC2Ev(ptr noundef nonnull align 8 dereferenceable(8) %6) #19
  store ptr getelementptr inbounds inrange(-16, 48) ({ [8 x ptr], [5 x ptr] }, ptr @_ZTVN5osgeo4proj8metadata16GeographicExtentE, i32 0, i32 0, i32 2), ptr %5, align 8
  %7 = getelementptr inbounds i8, ptr %5, i64 16
  store ptr getelementptr inbounds inrange(-16, 24) ({ [8 x ptr], [5 x ptr] }, ptr @_ZTVN5osgeo4proj8metadata16GeographicExtentE, i32 0, i32 1, i32 2), ptr %7, align 8
  %8 = getelementptr inbounds %"class.osgeo::proj::metadata::GeographicExtent", ptr %5, i32 0, i32 2
  invoke void @_ZN5osgeo4proj8internal11make_uniqueINS0_8metadata16GeographicExtent7PrivateEJEEESt10unique_ptrIT_St14default_deleteIS7_EEDpOT0_(ptr dead_on_unwind writable sret(%"class.std::unique_ptr.10") align 8 %8)
          to label %9 unwind label %10

9:                                                ; preds = %1
  ret void

10:                                               ; preds = %1
  %11 = landingpad { ptr, i32 }
          cleanup
  %12 = extractvalue { ptr, i32 } %11, 0
  store ptr %12, ptr %3, align 8
  %13 = extractvalue { ptr, i32 } %11, 1
  store i32 %13, ptr %4, align 4
  %14 = getelementptr inbounds i8, ptr %5, i64 16
  call void @_ZN5osgeo4proj4util11IComparableD2Ev(ptr noundef nonnull align 8 dereferenceable(8) %14) #19
  call void @_ZN5osgeo4proj4util10BaseObjectD2Ev(ptr noundef nonnull align 8 dereferenceable(16) %5) #19
  br label %15

15:                                               ; preds = %10
  %16 = load ptr, ptr %3, align 8
  %17 = load i32, ptr %4, align 4
  %18 = insertvalue { ptr, i32 } poison, ptr %16, 0
  %19 = insertvalue { ptr, i32 } %18, i32 %17, 1
  resume { ptr, i32 } %19
}