; Function Attrs: mustprogress uwtable
define hidden void @_ZN5osgeo4proj8metadata16GeographicExtentC2Ev(ptr noundef nonnull align 8 dereferenceable(32) %0) unnamed_addr #0 align 2 personality ptr @__gxx_personality_v0 {
  tail call void @_ZN5osgeo4proj4util10BaseObjectC2Ev(ptr noundef nonnull align 8 dereferenceable(16) %0)
  %2 = getelementptr inbounds i8, ptr %0, i64 16
  store ptr getelementptr inbounds inrange(-16, 48) ({ [8 x ptr], [5 x ptr] }, ptr @_ZTVN5osgeo4proj8metadata16GeographicExtentE, i64 0, i32 0, i64 2), ptr %0, align 8
  store ptr getelementptr inbounds inrange(-16, 24) ({ [8 x ptr], [5 x ptr] }, ptr @_ZTVN5osgeo4proj8metadata16GeographicExtentE, i64 0, i32 1, i64 2), ptr %2, align 8
  %3 = invoke noalias noundef nonnull dereferenceable(1) ptr @_Znwm(i64 noundef 1) #27
          to label %4 unwind label %6

4:                                                ; preds = %1
  %5 = getelementptr inbounds i8, ptr %0, i64 24
  store ptr %3, ptr %5, align 8, !alias.scope !13
  ret void

6:                                                ; preds = %1
  %7 = landingpad { ptr, i32 }
          cleanup
  tail call void @_ZN5osgeo4proj4util11IComparableD2Ev(ptr noundef nonnull align 8 dereferenceable(8) %2) #28
  tail call void @_ZN5osgeo4proj4util10BaseObjectD2Ev(ptr noundef nonnull align 8 dereferenceable(16) %0) #28
  resume { ptr, i32 } %7
}